; Function Attrs: mustprogress uwtable
define internal fastcc noundef ptr @_ZL32stbi__load_and_postprocess_16bitP13stbi__contextPiS1_S1_i(ptr noundef nonnull %0, ptr noundef captures(none) %1, ptr noundef captures(none) %2, ptr noundef %3, i32 noundef %4) unnamed_addr #5 {
  %6 = alloca [2048 x i8], align 16
  %7 = alloca %struct.stbi__result_info, align 4
  call void @llvm.lifetime.start.p0(i64 12, ptr nonnull %7) #40
  %8 = call fastcc noundef ptr @_ZL15stbi__load_mainP13stbi__contextPiS1_S1_iP17stbi__result_infoi(ptr noundef %0, ptr noundef %1, ptr noundef %2, ptr noundef %3, i32 noundef %4, ptr noundef %7, i32 noundef 16)
  %9 = icmp eq ptr %8, null
  br i1 %9, label %68, label %10

10:                                               ; preds = %5
  %11 = load i32, ptr %7, align 4, !tbaa !25
  switch i32 %11, label %12 [
    i32 16, label %35
    i32 8, label %13
  ]

12:                                               ; preds = %10
  tail call void @_ZN4pbrt8LogFatalIJRA54_KcEEEvNS_8LogLevelEPS1_iS5_DpOT_(i32 noundef 2, ptr noundef nonnull @.str.2, i32 noundef 1275, ptr noundef nonnull @.str.3, ptr noundef nonnull align 1 dereferenceable(54) @.str.4) #41
  unreachable

13:                                               ; preds = %10
  %14 = load i32, ptr %1, align 4, !tbaa !9
  %15 = load i32, ptr %2, align 4, !tbaa !9
  %16 = icmp eq i32 %4, 0
  br i1 %16, label %17, label %19

17:                                               ; preds = %13
  %18 = load i32, ptr %3, align 4, !tbaa !9
  br label %19

19:                                               ; preds = %13, %17
  %20 = phi i32 [ %18, %17 ], [ %4, %13 ]
  %21 = mul nsw i32 %15, %14
  %22 = mul nsw i32 %21, %20
  %23 = shl nsw i32 %22, 1
  %24 = sext i32 %23 to i64
  %25 = tail call noalias noundef ptr @malloc(i64 noundef range(i64 -8589934588, 8589934589) %24) #42
  %26 = icmp eq ptr %25, null
  br i1 %26, label %28, label %.preheader.i

.preheader.i:                                     ; preds = %19
  %27 = icmp sgt i32 %22, 0
  br i1 %27, label %.lr.ph.preheader.i, label %._crit_edge.i

.lr.ph.preheader.i:                               ; preds = %.preheader.i
  %wide.trip.count.i = zext nneg i32 %22 to i64
  br label %.lr.ph.i

28:                                               ; preds = %19
  %29 = tail call align 8 ptr @llvm.threadlocal.address.p0(ptr align 8 @_ZL22stbi__g_failure_reason)
  store ptr @.str.8, ptr %29, align 8, !tbaa !4
  br label %_ZL21stbi__convert_8_to_16Phiii.exit

.lr.ph.i:                                         ; preds = %.lr.ph.i, %.lr.ph.preheader.i
  %indvars.iv.i = phi i64 [ 0, %.lr.ph.preheader.i ], [ %indvars.iv.next.i, %.lr.ph.i ]
  %30 = getelementptr inbounds nuw i8, ptr %8, i64 %indvars.iv.i
  %31 = load i8, ptr %30, align 1, !tbaa !22
  %32 = zext i8 %31 to i16
  %33 = mul nuw i16 %32, 257
  %34 = getelementptr inbounds nuw i16, ptr %25, i64 %indvars.iv.i
  store i16 %33, ptr %34, align 2, !tbaa !27
  %indvars.iv.next.i = add nuw nsw i64 %indvars.iv.i, 1
  %exitcond.not.i = icmp eq i64 %indvars.iv.next.i, %wide.trip.count.i
  br i1 %exitcond.not.i, label %._crit_edge.i, label %.lr.ph.i, !llvm.loop !33

._crit_edge.i:                                    ; preds = %.lr.ph.i, %.preheader.i
  tail call void @free(ptr noundef nonnull %8) #40
  br label %_ZL21stbi__convert_8_to_16Phiii.exit

_ZL21stbi__convert_8_to_16Phiii.exit:             ; preds = %28, %._crit_edge.i
  store i32 16, ptr %7, align 4, !tbaa !25
  br label %35

35:                                               ; preds = %10, %_ZL21stbi__convert_8_to_16Phiii.exit
  %.022 = phi ptr [ %25, %_ZL21stbi__convert_8_to_16Phiii.exit ], [ %8, %10 ]
  %36 = tail call align 4 ptr @llvm.threadlocal.address.p0(ptr align 4 @_ZL33stbi__vertically_flip_on_load_set)
  %37 = load i32, ptr %36, align 4, !tbaa !9
  %.not25 = icmp eq i32 %37, 0
  %38 = tail call align 4 ptr @llvm.threadlocal.address.p0(ptr align 4 @_ZL35stbi__vertically_flip_on_load_local)
  %39 = load i32, ptr %38, align 4
  %40 = load i32, ptr @_ZL36stbi__vertically_flip_on_load_global, align 4
  %41 = select i1 %.not25, i32 %40, i32 %39
  %.not26 = icmp eq i32 %41, 0
  br i1 %.not26, label %68, label %42

42:                                               ; preds = %35
  %.not27 = icmp eq i32 %4, 0
  br i1 %.not27, label %43, label %45

43:                                               ; preds = %42
  %44 = load i32, ptr %3, align 4, !tbaa !9
  br label %45

45:                                               ; preds = %42, %43
  %46 = phi i32 [ %44, %43 ], [ %4, %42 ]
  %47 = load i32, ptr %1, align 4, !tbaa !9
  %48 = load i32, ptr %2, align 4, !tbaa !9
  %49 = shl i32 %46, 1
  %50 = sext i32 %47 to i64
  %51 = sext i32 %49 to i64
  %52 = mul nsw i64 %51, %50
  call void @llvm.lifetime.start.p0(i64 2048, ptr nonnull %6)
  %53 = ashr i32 %48, 1
  %54 = icmp slt i32 %53, 1
  %.not32.i = icmp eq i64 %52, 0
  %or.cond.i = select i1 %54, i1 true, i1 %.not32.i
  br i1 %or.cond.i, label %_ZL19stbi__vertical_flipPviii.exit, label %.lr.ph.preheader.i28

.lr.ph.preheader.i28:                             ; preds = %45
  %wide.trip.count.i29 = zext nneg i32 %53 to i64
  br label %.lr.ph.i30

.lr.ph.i30:                                       ; preds = %._crit_edge.i32, %.lr.ph.preheader.i28
  %indvars.iv.i31 = phi i64 [ 0, %.lr.ph.preheader.i28 ], [ %indvars.iv.next.i33, %._crit_edge.i32 ]
  %55 = mul i64 %indvars.iv.i31, %52
  %56 = getelementptr inbounds nuw i8, ptr %.022, i64 %55
  %57 = trunc i64 %indvars.iv.i31 to i32
  %58 = xor i32 %57, -1
  %59 = add i32 %48, %58
  %60 = sext i32 %59 to i64
  %61 = mul i64 %52, %60
  %62 = getelementptr inbounds nuw i8, ptr %.022, i64 %61
  br label %63

63:                                               ; preds = %63, %.lr.ph.i30
  %.02935.i = phi i64 [ %52, %.lr.ph.i30 ], [ %67, %63 ]
  %.03034.i = phi ptr [ %62, %.lr.ph.i30 ], [ %66, %63 ]
  %.03133.i = phi ptr [ %56, %.lr.ph.i30 ], [ %65, %63 ]
  %64 = tail call i64 @llvm.umin.i64(i64 %.02935.i, i64 2048)
  call void @llvm.memcpy.p0.p0.i64(ptr nonnull align 16 %6, ptr align 1 %.03133.i, i64 %64, i1 false)
  tail call void @llvm.memcpy.p0.p0.i64(ptr align 1 %.03133.i, ptr align 1 %.03034.i, i64 %64, i1 false)
  call void @llvm.memcpy.p0.p0.i64(ptr align 1 %.03034.i, ptr nonnull align 16 %6, i64 %64, i1 false)
  %65 = getelementptr inbounds nuw i8, ptr %.03133.i, i64 %64
  %66 = getelementptr inbounds nuw i8, ptr %.03034.i, i64 %64
  %67 = sub i64 %.02935.i, %64
  %.not.i = icmp eq i64 %67, 0
  br i1 %.not.i, label %._crit_edge.i32, label %63, !llvm.loop !31

._crit_edge.i32:                                  ; preds = %63
  %indvars.iv.next.i33 = add nuw nsw i64 %indvars.iv.i31, 1
  %exitcond.not.i34 = icmp eq i64 %indvars.iv.next.i33, %wide.trip.count.i29
  br i1 %exitcond.not.i34, label %_ZL19stbi__vertical_flipPviii.exit, label %.lr.ph.i30, !llvm.loop !32

_ZL19stbi__vertical_flipPviii.exit:               ; preds = %._crit_edge.i32, %45
  call void @llvm.lifetime.end.p0(i64 2048, ptr nonnull %6)
  br label %68

68:                                               ; preds = %35, %_ZL19stbi__vertical_flipPviii.exit, %5
  %.0 = phi ptr [ null, %5 ], [ %.022, %_ZL19stbi__vertical_flipPviii.exit ], [ %.022, %35 ]
  call void @llvm.lifetime.end.p0(i64 12, ptr nonnull %7) #40
  ret ptr %.0
}